#include <math.h>
#include <stdio.h>
#include <stdlib.h>
#include <string.h>

int main()
{
	char ch[100][10000]={0};
	
	char (*p)[10000];
	int n;
	scanf("%d\n",&n);
	for(p=ch;p<=ch+n-1;p++)
	{
		gets(*p);
	}
	char *point;
	int *p_num,count;
	for(p=ch;p<=ch+n-1;p++)
	{
        int num[26]={0};
		
		for(point=*p;*point!='\0';point++)
		{
			if(*point>='a'&&*point<='z')
			{
				int temp=*point-'a';
				p_num=num+temp;
				(*p_num)++;
			}
            else if(*point>='A'&&*point<='Z')
			{
				int temp=*point-'A';
				p_num=num+temp;
				(*p_num)++;
			}
		}
        for(point=*p;*point!='\0';point++)
		{  count=0;
           int temp=*point-'a';
           p_num=num+temp;
           if(*p_num==1){printf("%c",'a'+p_num-num);count++;break;}
		}if(count==0)printf("no");
		   
		   
		printf("\n");
	}
}
